; Function Attrs: nounwind uwtable
define internal fastcc ptr @make_flags(ptr noundef %0) unnamed_addr #0 {
  %2 = tail call ptr @PyStructSequence_New(ptr noundef nonnull @FlagsType) #15
  %3 = icmp eq ptr %2, null
  br i1 %3, label %Py_DECREF.exit, label %4

4:                                                ; preds = %1
  %5 = tail call fastcc i32 @set_flags_from_config(ptr noundef %0, ptr noundef %2)
  %6 = icmp slt i32 %5, 0
  br i1 %6, label %7, label %Py_DECREF.exit

7:                                                ; preds = %4
  %8 = load i32, ptr %2, align 8, !tbaa !94
  %.not.i = icmp sgt i32 %8, -1
  br i1 %.not.i, label %9, label %Py_DECREF.exit

9:                                                ; preds = %7
  %10 = add nsw i32 %8, -1
  store i32 %10, ptr %2, align 8, !tbaa !94
  %11 = icmp eq i32 %10, 0
  br i1 %11, label %12, label %Py_DECREF.exit

12:                                               ; preds = %9
  tail call void @_Py_Dealloc(ptr noundef nonnull %2) #15
  br label %Py_DECREF.exit

Py_DECREF.exit:                                   ; preds = %12, %9, %7, %4, %1
  %.0 = phi ptr [ null, %1 ], [ %2, %4 ], [ null, %7 ], [ null, %9 ], [ null, %12 ]
  ret ptr %.0
}